; Function Attrs: nofree norecurse nosync nounwind memory(readwrite, inaccessiblemem: none) uwtable
define hidden void @ByteBinary2BitXorRect(ptr nocapture noundef readonly %0, i32 noundef %1, i32 noundef %2, i32 noundef %3, i32 noundef %4, i32 noundef %5, ptr nocapture readnone %6, ptr nocapture noundef readonly %7) #0 {
  %9 = getelementptr inbounds i8, ptr %7, i64 4
  %10 = load i32, ptr %9, align 4
  %11 = getelementptr inbounds i8, ptr %0, i64 32
  %12 = load i32, ptr %11, align 8
  %13 = sub nsw i32 %4, %2
  %14 = sub nsw i32 %3, %1
  %15 = getelementptr inbounds i8, ptr %0, i64 16
  %16 = load ptr, ptr %15, align 8
  %17 = ptrtoint ptr %16 to i64
  %18 = sext i32 %2 to i64
  %19 = sext i32 %12 to i64
  %20 = mul nsw i64 %19, %18
  %21 = add nsw i64 %20, %17
  %22 = getelementptr inbounds i8, ptr %0, i64 24
  %23 = xor i32 %10, %5
  %24 = and i32 %23, 3
  br label %25

25:                                               ; preds = %54, %8
  %.041 = phi i32 [ %13, %8 ], [ %59, %54 ]
  %.040.in = phi i64 [ %21, %8 ], [ %58, %54 ]
  %.040 = inttoptr i64 %.040.in to ptr
  %26 = load i32, ptr %22, align 8
  %27 = sdiv i32 %26, 2
  %28 = add nsw i32 %27, %1
  %29 = sdiv i32 %28, 4
  %30 = srem i32 %28, 4
  %31 = shl nsw i32 %30, 1
  %32 = sub nsw i32 6, %31
  %33 = sext i32 %29 to i64
  %34 = getelementptr inbounds i8, ptr %.040, i64 %33
  %35 = load i8, ptr %34, align 1
  %36 = zext i8 %35 to i32
  br label %37

37:                                               ; preds = %48, %25
  %.038 = phi i32 [ %29, %25 ], [ %.139, %48 ]
  %.036 = phi i32 [ %32, %25 ], [ %51, %48 ]
  %.035 = phi i32 [ %36, %25 ], [ %50, %48 ]
  %.0 = phi i32 [ %14, %25 ], [ %52, %48 ]
  %38 = icmp slt i32 %.036, 0
  br i1 %38, label %39, label %48

39:                                               ; preds = %37
  %40 = trunc i32 %.035 to i8
  %41 = sext i32 %.038 to i64
  %42 = getelementptr inbounds i8, ptr %.040, i64 %41
  store i8 %40, ptr %42, align 1
  %43 = add nsw i32 %.038, 1
  %44 = sext i32 %43 to i64
  %45 = getelementptr inbounds i8, ptr %.040, i64 %44
  %46 = load i8, ptr %45, align 1
  %47 = zext i8 %46 to i32
  br label %48

48:                                               ; preds = %37, %39
  %.139 = phi i32 [ %43, %39 ], [ %.038, %37 ]
  %.137 = phi i32 [ 6, %39 ], [ %.036, %37 ]
  %.1 = phi i32 [ %47, %39 ], [ %.035, %37 ]
  %49 = shl nuw nsw i32 %24, %.137
  %50 = xor i32 %.1, %49
  %51 = add nsw i32 %.137, -2
  %52 = add nsw i32 %.0, -1
  %53 = icmp sgt i32 %.0, 1
  br i1 %53, label %37, label %54, !llvm.loop !14

54:                                               ; preds = %48
  %55 = trunc i32 %50 to i8
  %56 = sext i32 %.139 to i64
  %57 = getelementptr inbounds i8, ptr %.040, i64 %56
  store i8 %55, ptr %57, align 1
  %58 = add nsw i64 %.040.in, %19
  %59 = add i32 %.041, -1
  %.not = icmp eq i32 %59, 0
  br i1 %.not, label %60, label %25, !llvm.loop !15

60:                                               ; preds = %54
  ret void
}